target datalayout = "e-m:e-p270:32:32-p271:32:32-p272:64:64-i64:64-i128:128-f80:128-n8:16:32:64-S128"
target triple = "x86_64-pc-linux-gnu"

%struct.Gia_Man_t_ = type { ptr, ptr, i32, i32, i32, i32, ptr, ptr, i32, i32, i32, ptr, ptr, %struct.Vec_Int_t_, %struct.Vec_Int_t_, i32, i32, i32, %struct.Vec_Int_t_, ptr, ptr, ptr, i32, i32, i32, i32, ptr, ptr, ptr, ptr, ptr, i32, i32, ptr, i32, ptr, ptr, ptr, ptr, ptr, ptr, ptr, ptr, ptr, ptr, ptr, ptr, ptr, ptr, ptr, ptr, ptr, ptr, %struct.Vec_Int_t_, %struct.Vec_Int_t_, ptr, ptr, ptr, ptr, ptr, ptr, ptr, ptr, ptr, ptr, ptr, ptr, ptr, ptr, ptr, ptr, ptr, ptr, ptr, ptr, ptr, i32, float, float, ptr, ptr, i32, ptr, ptr, ptr, ptr, ptr, ptr, ptr, ptr, ptr, ptr, ptr, ptr, ptr, ptr, ptr, i64, i64, ptr, ptr, i32, i32, i32, i32, i32, i32, i32, i32, i32, i32, i32, i32, ptr, ptr, ptr, ptr, ptr, ptr, ptr, ptr, i32, i32, i32, ptr, i32, i32, ptr, ptr, ptr, ptr, ptr, ptr, i32, i32, ptr, %struct.Vec_Int_t_, %struct.Vec_Int_t_, %struct.Vec_Int_t_, ptr, ptr, ptr }
%struct.Vec_Int_t_ = type { i32, i32, ptr }
%struct.Gia_Obj_t_ = type <{ i64, i32 }>

; Function Attrs: nounwind uwtable
define internal ptr @Gia_ManObj(ptr noundef %0, i32 noundef %1) #0 {
  %3 = alloca ptr, align 8
  %4 = alloca i32, align 4
  store ptr %0, ptr %3, align 8
  store i32 %1, ptr %4, align 4
  %5 = load ptr, ptr %3, align 8
  %6 = getelementptr inbounds %struct.Gia_Man_t_, ptr %5, i32 0, i32 6
  %7 = load ptr, ptr %6, align 8
  %8 = load i32, ptr %4, align 4
  %9 = sext i32 %8 to i64
  %10 = getelementptr inbounds %struct.Gia_Obj_t_, ptr %7, i64 %9
  ret ptr %10
}

; Function Attrs: nounwind uwtable
define internal i32 @Vec_IntEntry(ptr noundef %0, i32 noundef %1) #0 {
  %3 = alloca ptr, align 8
  %4 = alloca i32, align 4
  store ptr %0, ptr %3, align 8
  store i32 %1, ptr %4, align 4
  %5 = load ptr, ptr %3, align 8
  %6 = getelementptr inbounds %struct.Vec_Int_t_, ptr %5, i32 0, i32 2
  %7 = load ptr, ptr %6, align 8
  %8 = load i32, ptr %4, align 4
  %9 = sext i32 %8 to i64
  %10 = getelementptr inbounds i32, ptr %7, i64 %9
  %11 = load i32, ptr %10, align 4
  ret i32 %11
}

; Function Attrs: nounwind uwtable
define internal i32 @Gia_ObjIsConst0(ptr noundef %0) #0 {
  %2 = alloca ptr, align 8
  store ptr %0, ptr %2, align 8
  %3 = load ptr, ptr %2, align 8
  %4 = load i64, ptr %3, align 4
  %5 = and i64 %4, 536870911
  %6 = trunc i64 %5 to i32
  %7 = icmp eq i32 %6, 536870911
  br i1 %7, label %8, label %15

8:                                                ; preds = %1
  %9 = load ptr, ptr %2, align 8
  %10 = load i64, ptr %9, align 4
  %11 = lshr i64 %10, 32
  %12 = and i64 %11, 536870911
  %13 = trunc i64 %12 to i32
  %14 = icmp eq i32 %13, 536870911
  br label %15

15:                                               ; preds = %8, %1
  %16 = phi i1 [ false, %1 ], [ %14, %8 ]
  %17 = zext i1 %16 to i32
  ret i32 %17
}

; Function Attrs: nounwind uwtable
define internal ptr @Gia_ObjFanin0(ptr noundef %0) #0 {
  %2 = alloca ptr, align 8
  store ptr %0, ptr %2, align 8
  %3 = load ptr, ptr %2, align 8
  %4 = load ptr, ptr %2, align 8
  %5 = load i64, ptr %4, align 4
  %6 = and i64 %5, 536870911
  %7 = trunc i64 %6 to i32
  %8 = sext i32 %7 to i64
  %9 = sub i64 0, %8
  %10 = getelementptr inbounds %struct.Gia_Obj_t_, ptr %3, i64 %9
  ret ptr %10
}

; Function Attrs: nounwind uwtable
define internal ptr @Gia_ManCo(ptr noundef %0, i32 noundef %1) #0 {
  %3 = alloca ptr, align 8
  %4 = alloca i32, align 4
  store ptr %0, ptr %3, align 8
  store i32 %1, ptr %4, align 4
  %5 = load ptr, ptr %3, align 8
  %6 = load ptr, ptr %3, align 8
  %7 = getelementptr inbounds %struct.Gia_Man_t_, ptr %6, i32 0, i32 12
  %8 = load ptr, ptr %7, align 8
  %9 = load i32, ptr %4, align 4
  %10 = call i32 @Vec_IntEntry(ptr noundef %8, i32 noundef %9)
  %11 = call ptr @Gia_ManObj(ptr noundef %5, i32 noundef %10)
  ret ptr %11
}

; Function Attrs: nounwind uwtable
define internal i32 @Vec_IntSize(ptr noundef %0) #0 {
  %2 = alloca ptr, align 8
  store ptr %0, ptr %2, align 8
  %3 = load ptr, ptr %2, align 8
  %4 = getelementptr inbounds %struct.Vec_Int_t_, ptr %3, i32 0, i32 1
  %5 = load i32, ptr %4, align 4
  ret i32 %5
}

; Function Attrs: nounwind uwtable
define void @Gia_ManIncrementTravId(ptr noundef %0) #0 {
  %2 = alloca ptr, align 8
  store ptr %0, ptr %2, align 8
  %3 = load ptr, ptr %2, align 8
  %4 = getelementptr inbounds %struct.Gia_Man_t_, ptr %3, i32 0, i32 80
  %5 = load ptr, ptr %4, align 8
  %6 = icmp eq ptr %5, null
  br i1 %6, label %7, label %22

7:                                                ; preds = %1
  %8 = load ptr, ptr %2, align 8
  %9 = call i32 @Gia_ManObjNum(ptr noundef %8)
  %10 = add nsw i32 %9, 100
  %11 = load ptr, ptr %2, align 8
  %12 = getelementptr inbounds %struct.Gia_Man_t_, ptr %11, i32 0, i32 81
  store i32 %10, ptr %12, align 8
  %13 = load ptr, ptr %2, align 8
  %14 = getelementptr inbounds %struct.Gia_Man_t_, ptr %13, i32 0, i32 81
  %15 = load i32, ptr %14, align 8
  %16 = sext i32 %15 to i64
  %17 = call noalias ptr @calloc(i64 noundef %16, i64 noundef 4) #13
  %18 = load ptr, ptr %2, align 8
  %19 = getelementptr inbounds %struct.Gia_Man_t_, ptr %18, i32 0, i32 80
  store ptr %17, ptr %19, align 8
  %20 = load ptr, ptr %2, align 8
  %21 = getelementptr inbounds %struct.Gia_Man_t_, ptr %20, i32 0, i32 24
  store i32 0, ptr %21, align 8
  br label %22

22:                                               ; preds = %7, %1
  br label %23

23:                                               ; preds = %56, %22
  %24 = load ptr, ptr %2, align 8
  %25 = getelementptr inbounds %struct.Gia_Man_t_, ptr %24, i32 0, i32 81
  %26 = load i32, ptr %25, align 8
  %27 = load ptr, ptr %2, align 8
  %28 = call i32 @Gia_ManObjNum(ptr noundef %27)
  %29 = icmp slt i32 %26, %28
  br i1 %29, label %30, label %75

30:                                               ; preds = %23
  %31 = load ptr, ptr %2, align 8
  %32 = getelementptr inbounds %struct.Gia_Man_t_, ptr %31, i32 0, i32 81
  %33 = load i32, ptr %32, align 8
  %34 = mul nsw i32 %33, 2
  store i32 %34, ptr %32, align 8
  %35 = load ptr, ptr %2, align 8
  %36 = getelementptr inbounds %struct.Gia_Man_t_, ptr %35, i32 0, i32 80
  %37 = load ptr, ptr %36, align 8
  %38 = icmp ne ptr %37, null
  br i1 %38, label %39, label %49

39:                                               ; preds = %30
  %40 = load ptr, ptr %2, align 8
  %41 = getelementptr inbounds %struct.Gia_Man_t_, ptr %40, i32 0, i32 80
  %42 = load ptr, ptr %41, align 8
  %43 = load ptr, ptr %2, align 8
  %44 = getelementptr inbounds %struct.Gia_Man_t_, ptr %43, i32 0, i32 81
  %45 = load i32, ptr %44, align 8
  %46 = sext i32 %45 to i64
  %47 = mul i64 4, %46
  %48 = call ptr @realloc(ptr noundef %42, i64 noundef %47) #14
  br label %56

49:                                               ; preds = %30
  %50 = load ptr, ptr %2, align 8
  %51 = getelementptr inbounds %struct.Gia_Man_t_, ptr %50, i32 0, i32 81
  %52 = load i32, ptr %51, align 8
  %53 = sext i32 %52 to i64
  %54 = mul i64 4, %53
  %55 = call noalias ptr @malloc(i64 noundef %54) #15
  br label %56

56:                                               ; preds = %49, %39
  %57 = phi ptr [ %48, %39 ], [ %55, %49 ]
  %58 = load ptr, ptr %2, align 8
  %59 = getelementptr inbounds %struct.Gia_Man_t_, ptr %58, i32 0, i32 80
  store ptr %57, ptr %59, align 8
  %60 = load ptr, ptr %2, align 8
  %61 = getelementptr inbounds %struct.Gia_Man_t_, ptr %60, i32 0, i32 80
  %62 = load ptr, ptr %61, align 8
  %63 = load ptr, ptr %2, align 8
  %64 = getelementptr inbounds %struct.Gia_Man_t_, ptr %63, i32 0, i32 81
  %65 = load i32, ptr %64, align 8
  %66 = sdiv i32 %65, 2
  %67 = sext i32 %66 to i64
  %68 = getelementptr inbounds i32, ptr %62, i64 %67
  %69 = load ptr, ptr %2, align 8
  %70 = getelementptr inbounds %struct.Gia_Man_t_, ptr %69, i32 0, i32 81
  %71 = load i32, ptr %70, align 8
  %72 = sext i32 %71 to i64
  %73 = mul i64 4, %72
  %74 = udiv i64 %73, 2
  call void @llvm.memset.p0.i64(ptr align 4 %68, i8 0, i64 %74, i1 false)
  br label %23, !llvm.loop !7

75:                                               ; preds = %23
  %76 = load ptr, ptr %2, align 8
  %77 = getelementptr inbounds %struct.Gia_Man_t_, ptr %76, i32 0, i32 24
  %78 = load i32, ptr %77, align 8
  %79 = add nsw i32 %78, 1
  store i32 %79, ptr %77, align 8
  ret void
}

; Function Attrs: nounwind uwtable
define internal ptr @Vec_IntAlloc(i32 noundef %0) #0 {
  %2 = alloca i32, align 4
  %3 = alloca ptr, align 8
  store i32 %0, ptr %2, align 4
  %4 = call noalias ptr @malloc(i64 noundef 16) #15
  store ptr %4, ptr %3, align 8
  %5 = load i32, ptr %2, align 4
  %6 = icmp sgt i32 %5, 0
  br i1 %6, label %7, label %11

7:                                                ; preds = %1
  %8 = load i32, ptr %2, align 4
  %9 = icmp slt i32 %8, 16
  br i1 %9, label %10, label %11

10:                                               ; preds = %7
  store i32 16, ptr %2, align 4
  br label %11

11:                                               ; preds = %10, %7, %1
  %12 = load ptr, ptr %3, align 8
  %13 = getelementptr inbounds %struct.Vec_Int_t_, ptr %12, i32 0, i32 1
  store i32 0, ptr %13, align 4
  %14 = load i32, ptr %2, align 4
  %15 = load ptr, ptr %3, align 8
  %16 = getelementptr inbounds %struct.Vec_Int_t_, ptr %15, i32 0, i32 0
  store i32 %14, ptr %16, align 8
  %17 = load ptr, ptr %3, align 8
  %18 = getelementptr inbounds %struct.Vec_Int_t_, ptr %17, i32 0, i32 0
  %19 = load i32, ptr %18, align 8
  %20 = icmp ne i32 %19, 0
  br i1 %20, label %21, label %28

21:                                               ; preds = %11
  %22 = load ptr, ptr %3, align 8
  %23 = getelementptr inbounds %struct.Vec_Int_t_, ptr %22, i32 0, i32 0
  %24 = load i32, ptr %23, align 8
  %25 = sext i32 %24 to i64
  %26 = mul i64 4, %25
  %27 = call noalias ptr @malloc(i64 noundef %26) #15
  br label %29

28:                                               ; preds = %11
  br label %29

29:                                               ; preds = %28, %21
  %30 = phi ptr [ %27, %21 ], [ null, %28 ]
  %31 = load ptr, ptr %3, align 8
  %32 = getelementptr inbounds %struct.Vec_Int_t_, ptr %31, i32 0, i32 2
  store ptr %30, ptr %32, align 8
  %33 = load ptr, ptr %3, align 8
  ret ptr %33
}

; Function Attrs: nounwind uwtable
define internal i32 @Gia_ManObjNum(ptr noundef %0) #0 {
  %2 = alloca ptr, align 8
  store ptr %0, ptr %2, align 8
  %3 = load ptr, ptr %2, align 8
  %4 = getelementptr inbounds %struct.Gia_Man_t_, ptr %3, i32 0, i32 4
  %5 = load i32, ptr %4, align 8
  ret i32 %5
}

; Function Attrs: nounwind uwtable
define void @Gia_ManCleanValue(ptr noundef %0) #0 {
  %2 = alloca ptr, align 8
  %3 = alloca i32, align 4
  store ptr %0, ptr %2, align 8
  store i32 0, ptr %3, align 4
  br label %4

4:                                                ; preds = %18, %1
  %5 = load i32, ptr %3, align 4
  %6 = load ptr, ptr %2, align 8
  %7 = getelementptr inbounds %struct.Gia_Man_t_, ptr %6, i32 0, i32 4
  %8 = load i32, ptr %7, align 8
  %9 = icmp slt i32 %5, %8
  br i1 %9, label %10, label %21

10:                                               ; preds = %4
  %11 = load ptr, ptr %2, align 8
  %12 = getelementptr inbounds %struct.Gia_Man_t_, ptr %11, i32 0, i32 6
  %13 = load ptr, ptr %12, align 8
  %14 = load i32, ptr %3, align 4
  %15 = sext i32 %14 to i64
  %16 = getelementptr inbounds %struct.Gia_Obj_t_, ptr %13, i64 %15
  %17 = getelementptr inbounds %struct.Gia_Obj_t_, ptr %16, i32 0, i32 1
  store i32 0, ptr %17, align 4
  br label %18

18:                                               ; preds = %10
  %19 = load i32, ptr %3, align 4
  %20 = add nsw i32 %19, 1
  store i32 %20, ptr %3, align 4
  br label %4, !llvm.loop !15

21:                                               ; preds = %4
  ret void
}

; Function Attrs: nounwind uwtable
define ptr @Gia_ManDfsForCrossCut(ptr noundef %0, i32 noundef %1) #0 {
  %3 = alloca ptr, align 8
  %4 = alloca i32, align 4
  %5 = alloca ptr, align 8
  %6 = alloca ptr, align 8
  %7 = alloca i32, align 4
  store ptr %0, ptr %3, align 8
  store i32 %1, ptr %4, align 4
  %8 = load ptr, ptr %3, align 8
  call void @Gia_ManCleanValue(ptr noundef %8)
  %9 = load ptr, ptr %3, align 8
  %10 = call i32 @Gia_ManObjNum(ptr noundef %9)
  %11 = call ptr @Vec_IntAlloc(i32 noundef %10)
  store ptr %11, ptr %5, align 8
  %12 = load ptr, ptr %3, align 8
  call void @Gia_ManIncrementTravId(ptr noundef %12)
  %13 = load i32, ptr %4, align 4
  %14 = icmp ne i32 %13, 0
  br i1 %14, label %15, label %45

15:                                               ; preds = %2
  %16 = load ptr, ptr %3, align 8
  %17 = getelementptr inbounds %struct.Gia_Man_t_, ptr %16, i32 0, i32 12
  %18 = load ptr, ptr %17, align 8
  %19 = call i32 @Vec_IntSize(ptr noundef %18)
  %20 = sub nsw i32 %19, 1
  store i32 %20, ptr %7, align 4
  br label %21

21:                                               ; preds = %41, %15
  %22 = load i32, ptr %7, align 4
  %23 = icmp sge i32 %22, 0
  br i1 %23, label %24, label %29

24:                                               ; preds = %21
  %25 = load ptr, ptr %3, align 8
  %26 = load i32, ptr %7, align 4
  %27 = call ptr @Gia_ManCo(ptr noundef %25, i32 noundef %26)
  store ptr %27, ptr %6, align 8
  %28 = icmp ne ptr %27, null
  br label %29

29:                                               ; preds = %24, %21
  %30 = phi i1 [ false, %21 ], [ %28, %24 ]
  br i1 %30, label %31, label %44

31:                                               ; preds = %29
  %32 = load ptr, ptr %6, align 8
  %33 = call ptr @Gia_ObjFanin0(ptr noundef %32)
  %34 = call i32 @Gia_ObjIsConst0(ptr noundef %33)
  %35 = icmp ne i32 %34, 0
  br i1 %35, label %40, label %36

36:                                               ; preds = %31
  %37 = load ptr, ptr %3, align 8
  %38 = load ptr, ptr %6, align 8
  %39 = load ptr, ptr %5, align 8
  call void @Gia_ManDfsForCrossCut_rec(ptr noundef %37, ptr noundef %38, ptr noundef %39)
  br label %40

40:                                               ; preds = %36, %31
  br label %41

41:                                               ; preds = %40
  %42 = load i32, ptr %7, align 4
  %43 = add nsw i32 %42, -1
  store i32 %43, ptr %7, align 4
  br label %21, !llvm.loop !40

44:                                               ; preds = %29
  br label %74

45:                                               ; preds = %2
  store i32 0, ptr %7, align 4
  br label %46

46:                                               ; preds = %70, %45
  %47 = load i32, ptr %7, align 4
  %48 = load ptr, ptr %3, align 8
  %49 = getelementptr inbounds %struct.Gia_Man_t_, ptr %48, i32 0, i32 12
  %50 = load ptr, ptr %49, align 8
  %51 = call i32 @Vec_IntSize(ptr noundef %50)
  %52 = icmp slt i32 %47, %51
  br i1 %52, label %53, label %58

53:                                               ; preds = %46
  %54 = load ptr, ptr %3, align 8
  %55 = load i32, ptr %7, align 4
  %56 = call ptr @Gia_ManCo(ptr noundef %54, i32 noundef %55)
  store ptr %56, ptr %6, align 8
  %57 = icmp ne ptr %56, null
  br label %58

58:                                               ; preds = %53, %46
  %59 = phi i1 [ false, %46 ], [ %57, %53 ]
  br i1 %59, label %60, label %73

60:                                               ; preds = %58
  %61 = load ptr, ptr %6, align 8
  %62 = call ptr @Gia_ObjFanin0(ptr noundef %61)
  %63 = call i32 @Gia_ObjIsConst0(ptr noundef %62)
  %64 = icmp ne i32 %63, 0
  br i1 %64, label %69, label %65

65:                                               ; preds = %60
  %66 = load ptr, ptr %3, align 8
  %67 = load ptr, ptr %6, align 8
  %68 = load ptr, ptr %5, align 8
  call void @Gia_ManDfsForCrossCut_rec(ptr noundef %66, ptr noundef %67, ptr noundef %68)
  br label %69

69:                                               ; preds = %65, %60
  br label %70

70:                                               ; preds = %69
  %71 = load i32, ptr %7, align 4
  %72 = add nsw i32 %71, 1
  store i32 %72, ptr %7, align 4
  br label %46, !llvm.loop !41

73:                                               ; preds = %58
  br label %74

74:                                               ; preds = %73, %44
  %75 = load ptr, ptr %5, align 8
  ret ptr %75
}