; Function Attrs: nounwind uwtable
define noundef ptr @Gia_ManDfsForCrossCut(ptr noundef %0, i32 noundef %1) local_unnamed_addr #2 {
  %3 = getelementptr inbounds nuw i8, ptr %0, i64 24
  %4 = load i32, ptr %3, align 8
  %5 = icmp sgt i32 %4, 0
  br i1 %5, label %.lr.ph.i, label %Gia_ManCleanValue.exit

.lr.ph.i:                                         ; preds = %2
  %6 = getelementptr inbounds nuw i8, ptr %0, i64 32
  br label %7

7:                                                ; preds = %7, %.lr.ph.i
  %indvars.iv.i = phi i64 [ 0, %.lr.ph.i ], [ %indvars.iv.next.i, %7 ]
  %8 = load ptr, ptr %6, align 8
  %9 = getelementptr inbounds nuw %struct.Gia_Obj_t_, ptr %8, i64 %indvars.iv.i, i32 1
  store i32 0, ptr %9, align 4
  %indvars.iv.next.i = add nuw nsw i64 %indvars.iv.i, 1
  %10 = load i32, ptr %3, align 8
  %11 = sext i32 %10 to i64
  %12 = icmp slt i64 %indvars.iv.next.i, %11
  br i1 %12, label %7, label %Gia_ManCleanValue.exit, !llvm.loop !13

Gia_ManCleanValue.exit:                           ; preds = %7, %2
  %.val = phi i32 [ %4, %2 ], [ %10, %7 ]
  %13 = tail call noalias dereferenceable_or_null(16) ptr @malloc(i64 noundef 16) #40
  %14 = add i32 %.val, -1
  %or.cond.i = icmp ult i32 %14, 15
  %spec.store.select.i = select i1 %or.cond.i, i32 16, i32 %.val
  %15 = getelementptr inbounds nuw i8, ptr %13, i64 4
  store i32 0, ptr %15, align 4
  store i32 %spec.store.select.i, ptr %13, align 8
  %.not.i = icmp eq i32 %spec.store.select.i, 0
  br i1 %.not.i, label %Vec_IntAlloc.exit, label %16

16:                                               ; preds = %Gia_ManCleanValue.exit
  %17 = sext i32 %spec.store.select.i to i64
  %18 = shl nsw i64 %17, 2
  %19 = tail call noalias ptr @malloc(i64 noundef %18) #40
  br label %Vec_IntAlloc.exit

Vec_IntAlloc.exit:                                ; preds = %Gia_ManCleanValue.exit, %16
  %20 = phi ptr [ %19, %16 ], [ null, %Gia_ManCleanValue.exit ]
  %21 = getelementptr inbounds nuw i8, ptr %13, i64 8
  store ptr %20, ptr %21, align 8
  %22 = getelementptr inbounds nuw i8, ptr %0, i64 616
  %23 = load ptr, ptr %22, align 8
  %24 = icmp eq ptr %23, null
  br i1 %24, label %.thread.i, label %30

.thread.i:                                        ; preds = %Vec_IntAlloc.exit
  %25 = add nsw i32 %.val, 100
  %26 = getelementptr inbounds nuw i8, ptr %0, i64 624
  store i32 %25, ptr %26, align 8
  %27 = sext i32 %25 to i64
  %28 = tail call noalias ptr @calloc(i64 noundef %27, i64 noundef 4) #38
  store ptr %28, ptr %22, align 8
  %29 = getelementptr inbounds nuw i8, ptr %0, i64 176
  store i32 0, ptr %29, align 8
  br label %Gia_ManIncrementTravId.exit

30:                                               ; preds = %Vec_IntAlloc.exit
  %.phi.trans.insert.i = getelementptr inbounds nuw i8, ptr %0, i64 624
  %.pre.i = load i32, ptr %.phi.trans.insert.i, align 8
  %31 = icmp slt i32 %.pre.i, %.val
  br i1 %31, label %.lr.ph.i38, label %Gia_ManIncrementTravId.exit

.lr.ph.i38:                                       ; preds = %30, %41
  %.val18.i55 = phi i32 [ %.val18.i, %41 ], [ %.val, %30 ]
  %32 = phi ptr [ %43, %41 ], [ %23, %30 ]
  %33 = phi i32 [ %42, %41 ], [ %.pre.i, %30 ]
  %34 = shl nsw i32 %33, 1
  store i32 %34, ptr %.phi.trans.insert.i, align 8
  %.not.i39 = icmp eq ptr %32, null
  %35 = sext i32 %34 to i64
  %36 = shl nsw i64 %35, 2
  br i1 %.not.i39, label %39, label %37

37:                                               ; preds = %.lr.ph.i38
  %38 = tail call ptr @realloc(ptr noundef nonnull %32, i64 noundef %36) #39
  %.pre23.i = load i32, ptr %.phi.trans.insert.i, align 8
  %.pre24.i = sext i32 %.pre23.i to i64
  %.val18.i.pre = load i32, ptr %3, align 8
  br label %41

39:                                               ; preds = %.lr.ph.i38
  %40 = tail call noalias ptr @malloc(i64 noundef %36) #40
  br label %41

41:                                               ; preds = %39, %37
  %.val18.i = phi i32 [ %.val18.i55, %39 ], [ %.val18.i.pre, %37 ]
  %.pre-phi.i = phi i64 [ %35, %39 ], [ %.pre24.i, %37 ]
  %42 = phi i32 [ %34, %39 ], [ %.pre23.i, %37 ]
  %43 = phi ptr [ %40, %39 ], [ %38, %37 ]
  store ptr %43, ptr %22, align 8
  %44 = sdiv i32 %42, 2
  %45 = sext i32 %44 to i64
  %46 = getelementptr inbounds i32, ptr %43, i64 %45
  %47 = shl nsw i64 %.pre-phi.i, 1
  %48 = and i64 %47, 9223372036854775806
  tail call void @llvm.memset.p0.i64(ptr align 4 %46, i8 0, i64 %48, i1 false)
  %49 = icmp slt i32 %42, %.val18.i
  br i1 %49, label %.lr.ph.i38, label %Gia_ManIncrementTravId.exit, !llvm.loop !7

Gia_ManIncrementTravId.exit:                      ; preds = %41, %.thread.i, %30
  %50 = getelementptr inbounds nuw i8, ptr %0, i64 176
  %51 = load i32, ptr %50, align 8
  %52 = add nsw i32 %51, 1
  store i32 %52, ptr %50, align 8
  %.not = icmp eq i32 %1, 0
  br i1 %.not, label %.preheader, label %58

.preheader:                                       ; preds = %Gia_ManIncrementTravId.exit
  %53 = getelementptr i8, ptr %0, i64 32
  %54 = getelementptr inbounds nuw i8, ptr %0, i64 72
  %55 = load ptr, ptr %54, align 8
  %56 = getelementptr i8, ptr %55, i64 4
  %.val3045 = load i32, ptr %56, align 4
  %57 = icmp sgt i32 %.val3045, 0
  br i1 %57, label %.lr.ph47, label %.critedge

58:                                               ; preds = %Gia_ManIncrementTravId.exit
  %59 = getelementptr inbounds nuw i8, ptr %0, i64 72
  %60 = load ptr, ptr %59, align 8
  %61 = getelementptr i8, ptr %60, i64 4
  %.val31 = load i32, ptr %61, align 4
  %62 = getelementptr i8, ptr %0, i64 32
  %63 = icmp sgt i32 %.val31, 0
  br i1 %63, label %.lr.ph.preheader, label %.critedge

.lr.ph.preheader:                                 ; preds = %58
  %64 = zext nneg i32 %.val31 to i64
  br label %.lr.ph

.lr.ph:                                           ; preds = %.lr.ph.preheader, %77
  %indvars.iv = phi i64 [ %64, %.lr.ph.preheader ], [ %indvars.iv.next, %77 ]
  %indvars.iv.next = add nsw i64 %indvars.iv, -1
  %.val34 = load ptr, ptr %62, align 8
  %.val35 = load ptr, ptr %59, align 8
  %65 = getelementptr i8, ptr %.val35, i64 8
  %.val35.val = load ptr, ptr %65, align 8
  %66 = getelementptr inbounds nuw i32, ptr %.val35.val, i64 %indvars.iv.next
  %67 = load i32, ptr %66, align 4
  %68 = sext i32 %67 to i64
  %69 = getelementptr inbounds %struct.Gia_Obj_t_, ptr %.val34, i64 %68
  %.not28 = icmp eq ptr %.val34, null
  br i1 %.not28, label %.critedge, label %70

70:                                               ; preds = %.lr.ph
  %71 = load i64, ptr %69, align 4
  %72 = and i64 %71, 536870911
  %73 = sub nsw i64 0, %72
  %74 = getelementptr inbounds %struct.Gia_Obj_t_, ptr %69, i64 %73
  %.val36 = load i64, ptr %74, align 4
  %75 = and i64 %.val36, 2305843005455597567
  %narrow.i.not = icmp eq i64 %75, 2305843005455597567
  br i1 %narrow.i.not, label %77, label %76

76:                                               ; preds = %70
  tail call void @Gia_ManDfsForCrossCut_rec(ptr noundef nonnull %0, ptr noundef nonnull %69, ptr noundef nonnull %13)
  br label %77

77:                                               ; preds = %70, %76
  %78 = icmp samesign ugt i64 %indvars.iv, 1
  br i1 %78, label %.lr.ph, label %.critedge, !llvm.loop !38

.lr.ph47:                                         ; preds = %.preheader, %92
  %79 = phi ptr [ %93, %92 ], [ %55, %.preheader ]
  %indvars.iv51 = phi i64 [ %indvars.iv.next52, %92 ], [ 0, %.preheader ]
  %.val32 = load ptr, ptr %53, align 8
  %80 = getelementptr i8, ptr %79, i64 8
  %.val33.val = load ptr, ptr %80, align 8
  %81 = getelementptr inbounds nuw i32, ptr %.val33.val, i64 %indvars.iv51
  %82 = load i32, ptr %81, align 4
  %83 = sext i32 %82 to i64
  %84 = getelementptr inbounds %struct.Gia_Obj_t_, ptr %.val32, i64 %83
  %.not26 = icmp eq ptr %.val32, null
  br i1 %.not26, label %.critedge, label %85

85:                                               ; preds = %.lr.ph47
  %86 = load i64, ptr %84, align 4
  %87 = and i64 %86, 536870911
  %88 = sub nsw i64 0, %87
  %89 = getelementptr inbounds %struct.Gia_Obj_t_, ptr %84, i64 %88
  %.val37 = load i64, ptr %89, align 4
  %90 = and i64 %.val37, 2305843005455597567
  %narrow.i40.not = icmp eq i64 %90, 2305843005455597567
  br i1 %narrow.i40.not, label %92, label %91

91:                                               ; preds = %85
  tail call void @Gia_ManDfsForCrossCut_rec(ptr noundef nonnull %0, ptr noundef nonnull %84, ptr noundef nonnull %13)
  %.pre = load ptr, ptr %54, align 8
  br label %92

92:                                               ; preds = %85, %91
  %93 = phi ptr [ %79, %85 ], [ %.pre, %91 ]
  %indvars.iv.next52 = add nuw nsw i64 %indvars.iv51, 1
  %94 = getelementptr i8, ptr %93, i64 4
  %.val30 = load i32, ptr %94, align 4
  %95 = sext i32 %.val30 to i64
  %96 = icmp slt i64 %indvars.iv.next52, %95
  br i1 %96, label %.lr.ph47, label %.critedge, !llvm.loop !39

.critedge:                                        ; preds = %77, %.lr.ph, %92, %.lr.ph47, %58, %.preheader
  ret ptr %13
}